; Function Attrs: mustprogress nofree norecurse nosync nounwind willreturn memory(read, inaccessiblemem: none) uwtable
define hidden noundef zeroext i1 @_ZNK3nla18const_iterator_monneERKS0_(ptr noundef nonnull readonly align 8 dereferenceable(24) %this, ptr noundef nonnull readonly align 8 dereferenceable(24) %other) local_unnamed_addr #7 align 2 {
entry:
  %m_full_factorization_returned.i = getelementptr inbounds i8, ptr %this, i64 16
  %0 = load i8, ptr %m_full_factorization_returned.i, align 8
  %m_full_factorization_returned2.i = getelementptr inbounds i8, ptr %other, i64 16
  %1 = load i8, ptr %m_full_factorization_returned2.i, align 8
  %2 = xor i8 %1, %0
  %3 = and i8 %2, 1
  %cmp.i = icmp eq i8 %3, 0
  br i1 %cmp.i, label %land.rhs.i, label %_ZNK3nla18const_iterator_moneqERKS0_.exit

land.rhs.i:                                       ; preds = %entry
  %cmp.i.i = icmp eq ptr %this, %other
  br i1 %cmp.i.i, label %_ZNK3nla18const_iterator_moneqERKS0_.exit, label %if.end.i.i

if.end.i.i:                                       ; preds = %land.rhs.i
  %4 = load ptr, ptr %this, align 8
  %cmp.i.i.i = icmp eq ptr %4, null
  br i1 %cmp.i.i.i, label %_ZNK6vectorIbLb0EjE4sizeEv.exit.i.i, label %if.end.i.i.i

if.end.i.i.i:                                     ; preds = %if.end.i.i
  %arrayidx.i.i.i = getelementptr inbounds i8, ptr %4, i64 -4
  %5 = load i32, ptr %arrayidx.i.i.i, align 4
  br label %_ZNK6vectorIbLb0EjE4sizeEv.exit.i.i

_ZNK6vectorIbLb0EjE4sizeEv.exit.i.i:              ; preds = %if.end.i.i.i, %if.end.i.i
  %retval.0.i.i.i = phi i32 [ %5, %if.end.i.i.i ], [ 0, %if.end.i.i ]
  %6 = load ptr, ptr %other, align 8
  %cmp.i6.i.i = icmp eq ptr %6, null
  br i1 %cmp.i6.i.i, label %_ZNK6vectorIbLb0EjE4sizeEv.exit10.i.i, label %if.end.i7.i.i

if.end.i7.i.i:                                    ; preds = %_ZNK6vectorIbLb0EjE4sizeEv.exit.i.i
  %arrayidx.i8.i.i = getelementptr inbounds i8, ptr %6, i64 -4
  %7 = load i32, ptr %arrayidx.i8.i.i, align 4
  br label %_ZNK6vectorIbLb0EjE4sizeEv.exit10.i.i

_ZNK6vectorIbLb0EjE4sizeEv.exit10.i.i:            ; preds = %if.end.i7.i.i, %_ZNK6vectorIbLb0EjE4sizeEv.exit.i.i
  %retval.0.i9.i.i = phi i32 [ %7, %if.end.i7.i.i ], [ 0, %_ZNK6vectorIbLb0EjE4sizeEv.exit.i.i ]
  %cmp3.not.i.i = icmp ne i32 %retval.0.i.i.i, %retval.0.i9.i.i
  %brmerge.i.i = or i1 %cmp.i.i.i, %cmp3.not.i.i
  br i1 %brmerge.i.i, label %_ZNK3nla18const_iterator_moneqERKS0_.exit, label %for.cond.preheader.split.i.i

for.cond.preheader.split.i.i:                     ; preds = %_ZNK6vectorIbLb0EjE4sizeEv.exit10.i.i
  %arrayidx.i13.i.i = getelementptr inbounds i8, ptr %4, i64 -4
  %8 = load i32, ptr %arrayidx.i13.i.i, align 4
  %wide.trip.count.i.i = zext i32 %8 to i64
  br label %for.cond.i.i

for.cond.i.i:                                     ; preds = %for.body.i.i, %for.cond.preheader.split.i.i
  %indvars.iv.i.i = phi i64 [ %indvars.iv.next.i.i, %for.body.i.i ], [ 0, %for.cond.preheader.split.i.i ]
  %exitcond.not.i.i.not = icmp ne i64 %indvars.iv.i.i, %wide.trip.count.i.i
  br i1 %exitcond.not.i.i.not, label %for.body.i.i, label %_ZNK3nla18const_iterator_moneqERKS0_.exit

for.body.i.i:                                     ; preds = %for.cond.i.i
  %arrayidx.i16.i.i = getelementptr inbounds i8, ptr %4, i64 %indvars.iv.i.i
  %9 = load i8, ptr %arrayidx.i16.i.i, align 1
  %arrayidx.i18.i.i = getelementptr inbounds i8, ptr %6, i64 %indvars.iv.i.i
  %10 = load i8, ptr %arrayidx.i18.i.i, align 1
  %11 = xor i8 %10, %9
  %12 = and i8 %11, 1
  %cmp12.not.i.i = icmp eq i8 %12, 0
  %indvars.iv.next.i.i = add nuw nsw i64 %indvars.iv.i.i, 1
  br i1 %cmp12.not.i.i, label %for.cond.i.i, label %_ZNK3nla18const_iterator_moneqERKS0_.exit, !llvm.loop !10

_ZNK3nla18const_iterator_moneqERKS0_.exit:        ; preds = %for.cond.i.i, %for.body.i.i, %entry, %land.rhs.i, %_ZNK6vectorIbLb0EjE4sizeEv.exit10.i.i
  %lnot = phi i1 [ true, %entry ], [ false, %land.rhs.i ], [ %cmp3.not.i.i, %_ZNK6vectorIbLb0EjE4sizeEv.exit10.i.i ], [ %exitcond.not.i.i.not, %for.body.i.i ], [ %exitcond.not.i.i.not, %for.cond.i.i ]
  ret i1 %lnot
}